target datalayout = "e-m:e-p270:32:32-p271:32:32-p272:64:64-i64:64-i128:128-f80:128-n8:16:32:64-S128"
target triple = "x86_64-unknown-linux-gnu"

%"class.hermes::vm::HermesValue" = type { i64 }
%"class.hermes::vm::GCCell" = type { %union.anon.1 }
%union.anon.1 = type { %"class.hermes::vm::KindAndSize" }
%"class.hermes::vm::KindAndSize" = type { i32 }
%"class.hermes::vm::HandleBase" = type { ptr }
%"class.hermes::vm::CallResult.162" = type { %"class.hermes::vm::Handle.163" }
%"class.hermes::vm::Handle.163" = type { %"class.hermes::vm::HandleBase" }

; Function Attrs: mustprogress nounwind uwtable
define linkonce_odr hidden noundef ptr @_ZNK6hermes2vm11HermesValue10getPointerEv(ptr noundef nonnull align 8 dereferenceable(8) %this) #0 comdat align 2 {
entry:
  %this.addr = alloca ptr, align 8
  store ptr %this, ptr %this.addr, align 8
  %this1 = load ptr, ptr %this.addr, align 8
  %raw_ = getelementptr inbounds %"class.hermes::vm::HermesValue", ptr %this1, i32 0, i32 0
  %0 = load i64, ptr %raw_, align 8
  %and = and i64 %0, 281474976710655
  %1 = inttoptr i64 %and to ptr
  ret ptr %1
}

; Function Attrs: mustprogress nounwind uwtable
define linkonce_odr hidden noundef ptr @_ZNK6hermes2vm11HermesValue9getObjectEv(ptr noundef nonnull align 8 dereferenceable(8) %this) #0 comdat align 2 {
entry:
  %this.addr = alloca ptr, align 8
  store ptr %this, ptr %this.addr, align 8
  %this1 = load ptr, ptr %this.addr, align 8
  %call = call noundef ptr @_ZNK6hermes2vm11HermesValue10getPointerEv(ptr noundef nonnull align 8 dereferenceable(8) %this1)
  ret ptr %call
}

; Function Attrs: mustprogress nounwind uwtable
define linkonce_odr hidden noundef ptr @_ZN6hermes2vm17HermesValueTraitsINS0_16JSTypedArrayBaseELb1EE6decodeENS0_11HermesValueE(i64 %value.coerce) #0 comdat align 2 {
entry:
  %value = alloca %"class.hermes::vm::HermesValue", align 8
  %coerce.dive = getelementptr inbounds %"class.hermes::vm::HermesValue", ptr %value, i32 0, i32 0
  store i64 %value.coerce, ptr %coerce.dive, align 8
  %call = call noundef ptr @_ZNK6hermes2vm11HermesValue9getObjectEv(ptr noundef nonnull align 8 dereferenceable(8) %value)
  ret ptr %call
}

; Function Attrs: mustprogress nounwind uwtable
define linkonce_odr hidden noundef i32 @_ZNK6hermes2vm11KindAndSize7getKindEv(ptr noundef nonnull align 4 dereferenceable(4) %this) #0 comdat align 2 {
entry:
  %this.addr = alloca ptr, align 8
  store ptr %this, ptr %this.addr, align 8
  %this1 = load ptr, ptr %this.addr, align 8
  %bf.load = load i32, ptr %this1, align 4
  %bf.lshr = lshr i32 %bf.load, 24
  ret i32 %bf.lshr
}

; Function Attrs: mustprogress nounwind uwtable
define linkonce_odr hidden noundef ptr @_ZN6hermes2vm17HermesValueTraitsINS0_16JSTypedArrayBaseELb1EE5arrowERKNS0_11HermesValueE(ptr noundef nonnull align 8 dereferenceable(8) %value) #0 comdat align 2 {
entry:
  %value.addr = alloca ptr, align 8
  %res = alloca ptr, align 8
  %agg.tmp = alloca %"class.hermes::vm::HermesValue", align 8
  store ptr %value, ptr %value.addr, align 8
  %0 = load ptr, ptr %value.addr, align 8
  call void @llvm.memcpy.p0.p0.i64(ptr align 8 %agg.tmp, ptr align 8 %0, i64 8, i1 false)
  %coerce.dive = getelementptr inbounds %"class.hermes::vm::HermesValue", ptr %agg.tmp, i32 0, i32 0
  %1 = load i64, ptr %coerce.dive, align 8
  %call = call noundef ptr @_ZN6hermes2vm17HermesValueTraitsINS0_16JSTypedArrayBaseELb1EE6decodeENS0_11HermesValueE(i64 %1)
  store ptr %call, ptr %res, align 8
  %2 = load ptr, ptr %res, align 8
  ret ptr %2
}

; Function Attrs: mustprogress nounwind uwtable
define linkonce_odr hidden noundef ptr @_ZNK6hermes2vm10HandleBase9handleRefEv(ptr noundef nonnull align 8 dereferenceable(8) %this) #0 comdat align 2 {
entry:
  %this.addr = alloca ptr, align 8
  store ptr %this, ptr %this.addr, align 8
  %this1 = load ptr, ptr %this.addr, align 8
  %handle_ = getelementptr inbounds %"class.hermes::vm::HandleBase", ptr %this1, i32 0, i32 0
  %0 = load ptr, ptr %handle_, align 8
  ret ptr %0
}

; Function Attrs: mustprogress nounwind uwtable
define linkonce_odr hidden noundef i32 @_ZNK6hermes2vm6GCCell7getKindEv(ptr noundef nonnull align 4 dereferenceable(4) %this) #0 comdat align 2 {
entry:
  %this.addr = alloca ptr, align 8
  store ptr %this, ptr %this.addr, align 8
  %this1 = load ptr, ptr %this.addr, align 8
  %0 = getelementptr inbounds %"class.hermes::vm::GCCell", ptr %this1, i32 0, i32 0
  %call = call noundef i32 @_ZNK6hermes2vm11KindAndSize7getKindEv(ptr noundef nonnull align 4 dereferenceable(4) %0)
  ret i32 %call
}

; Function Attrs: mustprogress nounwind uwtable
define linkonce_odr hidden noundef ptr @_ZNK6hermes2vm6HandleINS0_16JSTypedArrayBaseEEptEv(ptr noundef nonnull align 8 dereferenceable(8) %this) #0 comdat align 2 {
entry:
  %this.addr = alloca ptr, align 8
  store ptr %this, ptr %this.addr, align 8
  %this1 = load ptr, ptr %this.addr, align 8
  %call = call noundef ptr @_ZNK6hermes2vm10HandleBase9handleRefEv(ptr noundef nonnull align 8 dereferenceable(8) %this1)
  %call2 = call noundef ptr @_ZN6hermes2vm17HermesValueTraitsINS0_16JSTypedArrayBaseELb1EE5arrowERKNS0_11HermesValueE(ptr noundef nonnull align 8 dereferenceable(8) %call)
  ret ptr %call2
}

; Function Attrs: mustprogress nounwind uwtable
define hidden ptr @_ZN6hermes2vm16JSTypedArrayBase15allocateSpeciesERNS0_7RuntimeENS0_6HandleIS1_EEj(ptr noundef nonnull align 8 dereferenceable(9832) %runtime, ptr %self.coerce, i32 noundef %length) #0 align 2 {
entry:
  %retval = alloca %"class.hermes::vm::CallResult.162", align 8
  %self = alloca %"class.hermes::vm::Handle.163", align 8
  %runtime.addr = alloca ptr, align 8
  %length.addr = alloca i32, align 4
  %agg.tmp = alloca %"class.hermes::vm::Handle.163", align 8
  %coerce.dive = getelementptr inbounds %"class.hermes::vm::Handle.163", ptr %self, i32 0, i32 0
  %coerce.dive1 = getelementptr inbounds %"class.hermes::vm::HandleBase", ptr %coerce.dive, i32 0, i32 0
  store ptr %self.coerce, ptr %coerce.dive1, align 8
  store ptr %runtime, ptr %runtime.addr, align 8
  store i32 %length, ptr %length.addr, align 4
  %call = call noundef ptr @_ZNK6hermes2vm6HandleINS0_16JSTypedArrayBaseEEptEv(ptr noundef nonnull align 8 dereferenceable(8) %self)
  %call2 = call noundef i32 @_ZNK6hermes2vm6GCCell7getKindEv(ptr noundef nonnull align 4 dereferenceable(4) %call)
  %conv = sext i32 %call2 to i64
  %sub = sub i64 %conv, 35
  %arrayidx = getelementptr inbounds [11 x ptr], ptr @_ZZN6hermes2vm16JSTypedArrayBase15allocateSpeciesERNS0_7RuntimeENS0_6HandleIS1_EEjE11allocateFns, i64 0, i64 %sub
  %0 = load ptr, ptr %arrayidx, align 8
  call void @llvm.memcpy.p0.p0.i64(ptr align 8 %agg.tmp, ptr align 8 %self, i64 8, i1 false)
  %1 = load ptr, ptr %runtime.addr, align 8
  %2 = load i32, ptr %length.addr, align 4
  %coerce.dive3 = getelementptr inbounds %"class.hermes::vm::Handle.163", ptr %agg.tmp, i32 0, i32 0
  %coerce.dive4 = getelementptr inbounds %"class.hermes::vm::HandleBase", ptr %coerce.dive3, i32 0, i32 0
  %3 = load ptr, ptr %coerce.dive4, align 8
  %call5 = call ptr %0(ptr %3, ptr noundef nonnull align 8 dereferenceable(9832) %1, i32 noundef %2)
  %coerce.dive6 = getelementptr inbounds %"class.hermes::vm::CallResult.162", ptr %retval, i32 0, i32 0
  %coerce.dive7 = getelementptr inbounds %"class.hermes::vm::Handle.163", ptr %coerce.dive6, i32 0, i32 0
  %coerce.dive8 = getelementptr inbounds %"class.hermes::vm::HandleBase", ptr %coerce.dive7, i32 0, i32 0
  store ptr %call5, ptr %coerce.dive8, align 8
  %coerce.dive9 = getelementptr inbounds %"class.hermes::vm::CallResult.162", ptr %retval, i32 0, i32 0
  %coerce.dive10 = getelementptr inbounds %"class.hermes::vm::Handle.163", ptr %coerce.dive9, i32 0, i32 0
  %coerce.dive11 = getelementptr inbounds %"class.hermes::vm::HandleBase", ptr %coerce.dive10, i32 0, i32 0
  %4 = load ptr, ptr %coerce.dive11, align 8
  ret ptr %4
}