; Function Attrs: mustprogress nounwind uwtable
define hidden ptr @_ZN6hermes2vm16JSTypedArrayBase15allocateSpeciesERNS0_7RuntimeENS0_6HandleIS1_EEj(ptr noundef nonnull align 8 dereferenceable(9832) %runtime, ptr %self.coerce, i32 noundef %length) local_unnamed_addr #1 align 2 {
entry:
  %agg.tmp.sroa.0.0.copyload.i.i = load i64, ptr %self.coerce, align 8
  %and.i.i.i.i.i = and i64 %agg.tmp.sroa.0.0.copyload.i.i, 281474976710655
  %0 = inttoptr i64 %and.i.i.i.i.i to ptr
  %bf.load.i.i = load i32, ptr %0, align 4
  %bf.lshr.i.i = lshr i32 %bf.load.i.i, 24
  %conv = zext nneg i32 %bf.lshr.i.i to i64
  %sub = add nsw i64 %conv, -35
  %arrayidx = getelementptr inbounds [11 x ptr], ptr @_ZZN6hermes2vm16JSTypedArrayBase15allocateSpeciesERNS0_7RuntimeENS0_6HandleIS1_EEjE11allocateFns, i64 0, i64 %sub
  %1 = load ptr, ptr %arrayidx, align 8
  %call5 = tail call ptr %1(ptr nonnull %self.coerce, ptr noundef nonnull align 8 dereferenceable(9832) %runtime, i32 noundef %length) #10
  ret ptr %call5
}